	.file	"kmutex.c"
	.text
.Ltext0:
	.type	equals, @function
equals:
.LFB0:
	.file 1 "include/util/debug.h"
	.loc 1 235 0
	.cfi_startproc
	pushl	%ebp
	.cfi_def_cfa_offset 8
	.cfi_offset 5, -8
	movl	%esp, %ebp
	.cfi_def_cfa_register 5
	.loc 1 235 0
	movl	8(%ebp), %eax
	cmpl	12(%ebp), %eax
	sete	%al
	movzbl	%al, %eax
	popl	%ebp
	.cfi_restore 5
	.cfi_def_cfa 4, 4
	ret
	.cfi_endproc
.LFE0:
	.size	equals, .-equals
	.type	notequals, @function
notequals:
.LFB1:
	.loc 1 236 0
	.cfi_startproc
	pushl	%ebp
	.cfi_def_cfa_offset 8
	.cfi_offset 5, -8
	movl	%esp, %ebp
	.cfi_def_cfa_register 5
	.loc 1 236 0
	movl	8(%ebp), %eax
	cmpl	12(%ebp), %eax
	setne	%al
	movzbl	%al, %eax
	popl	%ebp
	.cfi_restore 5
	.cfi_def_cfa 4, 4
	ret
	.cfi_endproc
.LFE1:
	.size	notequals, .-notequals
	.type	lessthan, @function
lessthan:
.LFB2:
	.loc 1 237 0
	.cfi_startproc
	pushl	%ebp
	.cfi_def_cfa_offset 8
	.cfi_offset 5, -8
	movl	%esp, %ebp
	.cfi_def_cfa_register 5
	.loc 1 237 0
	movl	8(%ebp), %eax
	cmpl	12(%ebp), %eax
	setl	%al
	movzbl	%al, %eax
	popl	%ebp
	.cfi_restore 5
	.cfi_def_cfa 4, 4
	ret
	.cfi_endproc
.LFE2:
	.size	lessthan, .-lessthan
	.type	greaterthan, @function
greaterthan:
.LFB3:
	.loc 1 238 0
	.cfi_startproc
	pushl	%ebp
	.cfi_def_cfa_offset 8
	.cfi_offset 5, -8
	movl	%esp, %ebp
	.cfi_def_cfa_register 5
	.loc 1 238 0
	movl	8(%ebp), %eax
	cmpl	12(%ebp), %eax
	setg	%al
	movzbl	%al, %eax
	popl	%ebp
	.cfi_restore 5
	.cfi_def_cfa 4, 4
	ret
	.cfi_endproc
.LFE3:
	.size	greaterthan, .-greaterthan
	.type	lessthaneq, @function
lessthaneq:
.LFB4:
	.loc 1 239 0
	.cfi_startproc
	pushl	%ebp
	.cfi_def_cfa_offset 8
	.cfi_offset 5, -8
	movl	%esp, %ebp
	.cfi_def_cfa_register 5
	.loc 1 239 0
	movl	8(%ebp), %eax
	cmpl	12(%ebp), %eax
	setle	%al
	movzbl	%al, %eax
	popl	%ebp
	.cfi_restore 5
	.cfi_def_cfa 4, 4
	ret
	.cfi_endproc
.LFE4:
	.size	lessthaneq, .-lessthaneq
	.type	greaterthaneq, @function
greaterthaneq:
.LFB5:
	.loc 1 240 0
	.cfi_startproc
	pushl	%ebp
	.cfi_def_cfa_offset 8
	.cfi_offset 5, -8
	movl	%esp, %ebp
	.cfi_def_cfa_register 5
	.loc 1 240 0
	movl	8(%ebp), %eax
	cmpl	12(%ebp), %eax
	setge	%al
	movzbl	%al, %eax
	popl	%ebp
	.cfi_restore 5
	.cfi_def_cfa 4, 4
	ret
	.cfi_endproc
.LFE5:
	.size	greaterthaneq, .-greaterthaneq
	.globl	kmutex_init
	.type	kmutex_init, @function
kmutex_init:
.LFB6:
	.file 2 "proc/kmutex.c"
	.loc 2 35 0
	.cfi_startproc
	pushl	%ebp
	.cfi_def_cfa_offset 8
	.cfi_offset 5, -8
	movl	%esp, %ebp
	.cfi_def_cfa_register 5
	.loc 2 37 0
	movl	8(%ebp), %eax
	movl	$0, 12(%eax)
	.loc 2 38 0
	movl	8(%ebp), %edx
	movl	8(%ebp), %eax
	movl	%edx, 4(%eax)
	movl	8(%ebp), %eax
	movl	4(%eax), %edx
	movl	8(%ebp), %eax
	movl	%edx, (%eax)
	.loc 2 39 0
	movl	8(%ebp), %eax
	movl	$0, 8(%eax)
	.loc 2 40 0
	popl	%ebp
	.cfi_restore 5
	.cfi_def_cfa 4, 4
	ret
	.cfi_endproc
.LFE6:
	.size	kmutex_init, .-kmutex_init
	.section	.rodata
	.align 4
.LC0:
	.string	"curthr && (curthr != mtx->km_holder)"
.LC1:
	.string	"assertion failed: %s"
.LC2:
	.string	"proc/kmutex.c"
.LC3:
	.string	"%s"
.LC4:
	.string	"%s:%d %s(): "
.LC5:
	.string	"(GRADING1A 6.a)\n"
.LC6:
	.string	"\033[0m"
.LC7:
	.string	"(GRADING1C)\n"
	.text
	.globl	kmutex_lock
	.type	kmutex_lock, @function
kmutex_lock:
.LFB7:
	.loc 2 50 0
	.cfi_startproc
	pushl	%ebp
	.cfi_def_cfa_offset 8
	.cfi_offset 5, -8
	movl	%esp, %ebp
	.cfi_def_cfa_register 5
	pushl	%edi
	pushl	%esi
	pushl	%ebx
	subl	$60, %esp
	.cfi_offset 7, -12
	.cfi_offset 6, -16
	.cfi_offset 3, -20
	.loc 2 52 0
	movl	curthr, %eax
	testl	%eax, %eax
	je	.L15
	.loc 2 52 0 is_stmt 0 discriminator 2
	movl	8(%ebp), %eax
	movl	12(%eax), %edx
	movl	curthr, %eax
	cmpl	%eax, %edx
	jne	.L16
.L15:
	.loc 2 52 0 discriminator 1
	movl	$.LC0, 16(%esp)
	movl	$.LC1, 12(%esp)
	movl	$__func__.1269, 8(%esp)
	movl	$52, 4(%esp)
	movl	$.LC2, (%esp)
	call	dbg_panic
.L16:
	.loc 2 53 0 is_stmt 1
	movl	dbg_modes, %eax
	movl	dbg_modes+4, %edx
	movl	%eax, %edi
	andl	$16777216, %edi
	movl	%edi, %ebx
	movl	%edx, %eax
	andl	$0, %eax
	movl	%eax, %esi
	movl	%esi, %eax
	orl	%ebx, %eax
	testl	%eax, %eax
	je	.L17
	.loc 2 53 0 is_stmt 0 discriminator 1
	movl	$16777216, (%esp)
	movl	$0, 4(%esp)
	call	dbg_color
	movl	%eax, 4(%esp)
	movl	$.LC3, (%esp)
	call	dbg_print
	movl	$__func__.1269, 12(%esp)
	movl	$53, 8(%esp)
	movl	$.LC2, 4(%esp)
	movl	$.LC4, (%esp)
	call	dbg_print
	movl	$.LC5, (%esp)
	call	dbg_print
	movl	$.LC6, 4(%esp)
	movl	$.LC3, (%esp)
	call	dbg_print
.L17:
	.loc 2 54 0 is_stmt 1
	movl	8(%ebp), %eax
	movl	12(%eax), %eax
	testl	%eax, %eax
	je	.L18
	.loc 2 55 0
	movl	8(%ebp), %eax
	movl	%eax, (%esp)
	call	sched_sleep_on
	.loc 2 56 0
	movl	dbg_modes, %eax
	movl	dbg_modes+4, %edx
	movl	%eax, %esi
	andl	$16777216, %esi
	movl	%esi, -32(%ebp)
	movl	%edx, %eax
	andl	$0, %eax
	movl	%eax, -28(%ebp)
	movl	-32(%ebp), %ecx
	movl	-28(%ebp), %ebx
	movl	%ebx, %eax
	orl	%ecx, %eax
	testl	%eax, %eax
	je	.L20
	.loc 2 56 0 is_stmt 0 discriminator 1
	movl	$16777216, (%esp)
	movl	$0, 4(%esp)
	call	dbg_color
	movl	%eax, 4(%esp)
	movl	$.LC3, (%esp)
	call	dbg_print
	movl	$__func__.1269, 12(%esp)
	movl	$56, 8(%esp)
	movl	$.LC2, 4(%esp)
	movl	$.LC4, (%esp)
	call	dbg_print
	movl	$.LC7, (%esp)
	call	dbg_print
	movl	$.LC6, 4(%esp)
	movl	$.LC3, (%esp)
	call	dbg_print
	jmp	.L20
.L18:
	.loc 2 58 0 is_stmt 1
	movl	curthr, %edx
	movl	8(%ebp), %eax
	movl	%edx, 12(%eax)
	.loc 2 59 0
	movl	dbg_modes, %eax
	movl	dbg_modes+4, %edx
	movl	%eax, %ecx
	andl	$16777216, %ecx
	movl	%ecx, -40(%ebp)
	movl	%edx, %eax
	andl	$0, %eax
	movl	%eax, -36(%ebp)
	movl	-40(%ebp), %esi
	movl	-36(%ebp), %edi
	movl	%edi, %eax
	orl	%esi, %eax
	testl	%eax, %eax
	je	.L20
	.loc 2 59 0 is_stmt 0 discriminator 1
	movl	$16777216, (%esp)
	movl	$0, 4(%esp)
	call	dbg_color
	movl	%eax, 4(%esp)
	movl	$.LC3, (%esp)
	call	dbg_print
	movl	$__func__.1269, 12(%esp)
	movl	$59, 8(%esp)
	movl	$.LC2, 4(%esp)
	movl	$.LC4, (%esp)
	call	dbg_print
	movl	$.LC7, (%esp)
	call	dbg_print
	movl	$.LC6, 4(%esp)
	movl	$.LC3, (%esp)
	call	dbg_print
.L20:
	.loc 2 61 0 is_stmt 1
	movl	dbg_modes, %eax
	movl	dbg_modes+4, %edx
	movl	%eax, %esi
	andl	$16777216, %esi
	movl	%esi, -48(%ebp)
	movl	%edx, %eax
	andl	$0, %eax
	movl	%eax, -44(%ebp)
	movl	-48(%ebp), %ecx
	movl	-44(%ebp), %ebx
	movl	%ebx, %eax
	orl	%ecx, %eax
	testl	%eax, %eax
	je	.L14
	.loc 2 61 0 is_stmt 0 discriminator 1
	movl	$16777216, (%esp)
	movl	$0, 4(%esp)
	call	dbg_color
	movl	%eax, 4(%esp)
	movl	$.LC3, (%esp)
	call	dbg_print
	movl	$__func__.1269, 12(%esp)
	movl	$61, 8(%esp)
	movl	$.LC2, 4(%esp)
	movl	$.LC4, (%esp)
	call	dbg_print
	movl	$.LC7, (%esp)
	call	dbg_print
	movl	$.LC6, 4(%esp)
	movl	$.LC3, (%esp)
	call	dbg_print
.L14:
	.loc 2 62 0 is_stmt 1
	addl	$60, %esp
	popl	%ebx
	.cfi_restore 3
	popl	%esi
	.cfi_restore 6
	popl	%edi
	.cfi_restore 7
	popl	%ebp
	.cfi_restore 5
	.cfi_def_cfa 4, 4
	ret
	.cfi_endproc
.LFE7:
	.size	kmutex_lock, .-kmutex_lock
	.section	.rodata
.LC8:
	.string	"(GRADING1A 6.b)\n"
	.text
	.globl	kmutex_lock_cancellable
	.type	kmutex_lock_cancellable, @function
kmutex_lock_cancellable:
.LFB8:
	.loc 2 70 0
	.cfi_startproc
	pushl	%ebp
	.cfi_def_cfa_offset 8
	.cfi_offset 5, -8
	movl	%esp, %ebp
	.cfi_def_cfa_register 5
	pushl	%edi
	pushl	%esi
	pushl	%ebx
	subl	$76, %esp
	.cfi_offset 7, -12
	.cfi_offset 6, -16
	.cfi_offset 3, -20
	.loc 2 72 0
	movl	curthr, %eax
	testl	%eax, %eax
	je	.L23
	.loc 2 72 0 is_stmt 0 discriminator 2
	movl	8(%ebp), %eax
	movl	12(%eax), %edx
	movl	curthr, %eax
	cmpl	%eax, %edx
	jne	.L24
.L23:
	.loc 2 72 0 discriminator 1
	movl	$.LC0, 16(%esp)
	movl	$.LC1, 12(%esp)
	movl	$__func__.1273, 8(%esp)
	movl	$72, 4(%esp)
	movl	$.LC2, (%esp)
	call	dbg_panic
.L24:
	.loc 2 73 0 is_stmt 1
	movl	dbg_modes, %eax
	movl	dbg_modes+4, %edx
	movl	%eax, %ecx
	andl	$16777216, %ecx
	movl	%ecx, %ebx
	movl	%edx, %eax
	andl	$0, %eax
	movl	%eax, %esi
	movl	%esi, %eax
	orl	%ebx, %eax
	testl	%eax, %eax
	je	.L25
	.loc 2 73 0 is_stmt 0 discriminator 1
	movl	$16777216, (%esp)
	movl	$0, 4(%esp)
	call	dbg_color
	movl	%eax, 4(%esp)
	movl	$.LC3, (%esp)
	call	dbg_print
	movl	$__func__.1273, 12(%esp)
	movl	$73, 8(%esp)
	movl	$.LC2, 4(%esp)
	movl	$.LC4, (%esp)
	call	dbg_print
	movl	$.LC8, (%esp)
	call	dbg_print
	movl	$.LC6, 4(%esp)
	movl	$.LC3, (%esp)
	call	dbg_print
.L25:
	.loc 2 74 0 is_stmt 1
	movl	dbg_modes, %eax
	movl	dbg_modes+4, %edx
	movl	%eax, %esi
	andl	$16777216, %esi
	movl	%esi, -32(%ebp)
	movl	%edx, %eax
	andl	$0, %eax
	movl	%eax, -28(%ebp)
	movl	-32(%ebp), %ecx
	movl	-28(%ebp), %ebx
	movl	%ebx, %eax
	orl	%ecx, %eax
	testl	%eax, %eax
	je	.L26
	.loc 2 74 0 is_stmt 0 discriminator 1
	movl	$16777216, (%esp)
	movl	$0, 4(%esp)
	call	dbg_color
	movl	%eax, 4(%esp)
	movl	$.LC3, (%esp)
	call	dbg_print
	movl	$__func__.1273, 12(%esp)
	movl	$74, 8(%esp)
	movl	$.LC2, 4(%esp)
	movl	$.LC4, (%esp)
	call	dbg_print
	movl	$.LC7, (%esp)
	call	dbg_print
	movl	$.LC6, 4(%esp)
	movl	$.LC3, (%esp)
	call	dbg_print
.L26:
	.loc 2 75 0 is_stmt 1
	movl	8(%ebp), %eax
	movl	12(%eax), %eax
	testl	%eax, %eax
	je	.L27
	.loc 2 76 0
	movl	dbg_modes, %eax
	movl	dbg_modes+4, %edx
	movl	%eax, %edi
	andl	$16777216, %edi
	movl	%edi, -40(%ebp)
	movl	%edx, %eax
	andl	$0, %eax
	movl	%eax, -36(%ebp)
	movl	-40(%ebp), %esi
	movl	-36(%ebp), %edi
	movl	%edi, %eax
	orl	%esi, %eax
	testl	%eax, %eax
	je	.L28
	.loc 2 76 0 is_stmt 0 discriminator 1
	movl	$16777216, (%esp)
	movl	$0, 4(%esp)
	call	dbg_color
	movl	%eax, 4(%esp)
	movl	$.LC3, (%esp)
	call	dbg_print
	movl	$__func__.1273, 12(%esp)
	movl	$76, 8(%esp)
	movl	$.LC2, 4(%esp)
	movl	$.LC4, (%esp)
	call	dbg_print
	movl	$.LC7, (%esp)
	call	dbg_print
	movl	$.LC6, 4(%esp)
	movl	$.LC3, (%esp)
	call	dbg_print
.L28:
	.loc 2 77 0 is_stmt 1
	movl	8(%ebp), %eax
	movl	%eax, (%esp)
	call	sched_cancellable_sleep_on
	jmp	.L29
.L27:
	.loc 2 79 0
	movl	curthr, %edx
	movl	8(%ebp), %eax
	movl	%edx, 12(%eax)
	.loc 2 80 0
	movl	dbg_modes, %eax
	movl	dbg_modes+4, %edx
	movl	%eax, %ecx
	andl	$16777216, %ecx
	movl	%ecx, -48(%ebp)
	movl	%edx, %eax
	andl	$0, %eax
	movl	%eax, -44(%ebp)
	movl	-48(%ebp), %ecx
	movl	-44(%ebp), %ebx
	movl	%ebx, %eax
	orl	%ecx, %eax
	testl	%eax, %eax
	je	.L30
	.loc 2 80 0 is_stmt 0 discriminator 1
	movl	$16777216, (%esp)
	movl	$0, 4(%esp)
	call	dbg_color
	movl	%eax, 4(%esp)
	movl	$.LC3, (%esp)
	call	dbg_print
	movl	$__func__.1273, 12(%esp)
	movl	$80, 8(%esp)
	movl	$.LC2, 4(%esp)
	movl	$.LC4, (%esp)
	call	dbg_print
	movl	$.LC7, (%esp)
	call	dbg_print
	movl	$.LC6, 4(%esp)
	movl	$.LC3, (%esp)
	call	dbg_print
.L30:
	.loc 2 82 0 is_stmt 1
	movl	dbg_modes, %eax
	movl	dbg_modes+4, %edx
	movl	%eax, %esi
	andl	$16777216, %esi
	movl	%esi, -56(%ebp)
	movl	%edx, %eax
	andl	$0, %eax
	movl	%eax, -52(%ebp)
	movl	-56(%ebp), %esi
	movl	-52(%ebp), %edi
	movl	%edi, %eax
	orl	%esi, %eax
	testl	%eax, %eax
	je	.L31
	.loc 2 82 0 is_stmt 0 discriminator 1
	movl	$16777216, (%esp)
	movl	$0, 4(%esp)
	call	dbg_color
	movl	%eax, 4(%esp)
	movl	$.LC3, (%esp)
	call	dbg_print
	movl	$__func__.1273, 12(%esp)
	movl	$82, 8(%esp)
	movl	$.LC2, 4(%esp)
	movl	$.LC4, (%esp)
	call	dbg_print
	movl	$.LC7, (%esp)
	call	dbg_print
	movl	$.LC6, 4(%esp)
	movl	$.LC3, (%esp)
	call	dbg_print
.L31:
	.loc 2 83 0 is_stmt 1
	movl	$0, %eax
.L29:
	.loc 2 84 0
	addl	$76, %esp
	popl	%ebx
	.cfi_restore 3
	popl	%esi
	.cfi_restore 6
	popl	%edi
	.cfi_restore 7
	popl	%ebp
	.cfi_restore 5
	.cfi_def_cfa 4, 4
	ret
	.cfi_endproc
.LFE8:
	.size	kmutex_lock_cancellable, .-kmutex_lock_cancellable
	.section	.rodata
	.align 4
.LC9:
	.string	"curthr && mtx->km_holder == curthr"
.LC10:
	.string	"(GRADING1A 6.c)\n"
.LC11:
	.string	"curthr != mtx->km_holder"
	.text
	.globl	kmutex_unlock
	.type	kmutex_unlock, @function
kmutex_unlock:
.LFB9:
	.loc 2 101 0
	.cfi_startproc
	pushl	%ebp
	.cfi_def_cfa_offset 8
	.cfi_offset 5, -8
	movl	%esp, %ebp
	.cfi_def_cfa_register 5
	pushl	%edi
	pushl	%esi
	pushl	%ebx
	subl	$44, %esp
	.cfi_offset 7, -12
	.cfi_offset 6, -16
	.cfi_offset 3, -20
	.loc 2 103 0
	movl	curthr, %eax
	testl	%eax, %eax
	je	.L33
	.loc 2 103 0 is_stmt 0 discriminator 2
	movl	8(%ebp), %eax
	movl	12(%eax), %edx
	movl	curthr, %eax
	cmpl	%eax, %edx
	je	.L34
.L33:
	.loc 2 103 0 discriminator 1
	movl	$.LC9, 16(%esp)
	movl	$.LC1, 12(%esp)
	movl	$__func__.1277, 8(%esp)
	movl	$103, 4(%esp)
	movl	$.LC2, (%esp)
	call	dbg_panic
.L34:
	.loc 2 104 0 is_stmt 1
	movl	dbg_modes, %eax
	movl	dbg_modes+4, %edx
	movl	%eax, %edi
	andl	$16777216, %edi
	movl	%edi, -32(%ebp)
	movl	%edx, %eax
	andl	$0, %eax
	movl	%eax, -28(%ebp)
	movl	-32(%ebp), %edx
	movl	-28(%ebp), %ecx
	movl	%ecx, %eax
	orl	%edx, %eax
	testl	%eax, %eax
	je	.L35
	.loc 2 104 0 is_stmt 0 discriminator 1
	movl	$16777216, (%esp)
	movl	$0, 4(%esp)
	call	dbg_color
	movl	%eax, 4(%esp)
	movl	$.LC3, (%esp)
	call	dbg_print
	movl	$__func__.1277, 12(%esp)
	movl	$104, 8(%esp)
	movl	$.LC2, 4(%esp)
	movl	$.LC4, (%esp)
	call	dbg_print
	movl	$.LC10, (%esp)
	call	dbg_print
	movl	$.LC6, 4(%esp)
	movl	$.LC3, (%esp)
	call	dbg_print
.L35:
	.loc 2 105 0 is_stmt 1
	movl	8(%ebp), %eax
	movl	%eax, (%esp)
	call	sched_wakeup_on
	movl	8(%ebp), %edx
	movl	%eax, 12(%edx)
	.loc 2 107 0
	movl	8(%ebp), %eax
	movl	12(%eax), %edx
	movl	curthr, %eax
	cmpl	%eax, %edx
	jne	.L36
	.loc 2 107 0 is_stmt 0 discriminator 1
	movl	$.LC11, 16(%esp)
	movl	$.LC1, 12(%esp)
	movl	$__func__.1277, 8(%esp)
	movl	$107, 4(%esp)
	movl	$.LC2, (%esp)
	call	dbg_panic
.L36:
	.loc 2 108 0 is_stmt 1
	movl	dbg_modes, %eax
	movl	dbg_modes+4, %edx
	movl	%eax, %ecx
	andl	$16777216, %ecx
	movl	%ecx, %ebx
	movl	%edx, %eax
	andl	$0, %eax
	movl	%eax, %esi
	movl	%esi, %eax
	orl	%ebx, %eax
	testl	%eax, %eax
	je	.L32
	.loc 2 108 0 is_stmt 0 discriminator 1
	movl	$16777216, (%esp)
	movl	$0, 4(%esp)
	call	dbg_color
	movl	%eax, 4(%esp)
	movl	$.LC3, (%esp)
	call	dbg_print
	movl	$__func__.1277, 12(%esp)
	movl	$108, 8(%esp)
	movl	$.LC2, 4(%esp)
	movl	$.LC4, (%esp)
	call	dbg_print
	movl	$.LC10, (%esp)
	call	dbg_print
	movl	$.LC6, 4(%esp)
	movl	$.LC3, (%esp)
	call	dbg_print
.L32:
	.loc 2 110 0 is_stmt 1
	addl	$44, %esp
	popl	%ebx
	.cfi_restore 3
	popl	%esi
	.cfi_restore 6
	popl	%edi
	.cfi_restore 7
	popl	%ebp
	.cfi_restore 5
	.cfi_def_cfa 4, 4
	ret
	.cfi_endproc
.LFE9:
	.size	kmutex_unlock, .-kmutex_unlock
	.section	.rodata
	.type	__func__.1269, @object
	.size	__func__.1269, 12
__func__.1269:
	.string	"kmutex_lock"
	.type	__func__.1273, @object
	.size	__func__.1273, 24
__func__.1273:
	.string	"kmutex_lock_cancellable"
	.type	__func__.1277, @object
	.size	__func__.1277, 14
__func__.1277:
	.string	"kmutex_unlock"
	.text
.Letext0:
	.file 3 "include/types.h"
	.file 4 "include/util/list.h"
	.file 5 "include/proc/sched.h"
	.file 6 "include/mm/pagetable.h"
	.file 7 "include/proc/context.h"
	.file 8 "include/proc/kthread.h"
	.file 9 "include/proc/proc.h"
	.file 10 "include/vm/vmmap.h"
	.file 11 "include/proc/kmutex.h"
	.file 12 "include/globals.h"
	.section	.note.GNU-stack,"",@progbits
